target datalayout = "e-m:e-p270:32:32-p271:32:32-p272:64:64-i64:64-i128:128-f80:128-n8:16:32:64-S128"
target triple = "x86_64-unknown-linux-gnu"

%struct.ResourceData = type { ptr, ptr, ptr, ptr, i32, i32, ptr, i32, i32, i8, i8, i8, i8 }

; Function Attrs: mustprogress nounwind uwtable
define internal noundef i32 @_ZL18makeResourceFrom16PK12ResourceDatai(ptr noundef %pResData, i32 noundef %res16) #2 {
entry:
  %pResData.addr = alloca ptr, align 8
  %res16.addr = alloca i32, align 4
  store ptr %pResData, ptr %pResData.addr, align 8
  store i32 %res16, ptr %res16.addr, align 4
  %0 = load i32, ptr %res16.addr, align 4
  %1 = load ptr, ptr %pResData.addr, align 8
  %poolStringIndex16Limit = getelementptr inbounds %struct.ResourceData, ptr %1, i32 0, i32 8
  %2 = load i32, ptr %poolStringIndex16Limit, align 4
  %cmp = icmp slt i32 %0, %2
  br i1 %cmp, label %if.then, label %if.else

if.then:                                          ; preds = %entry
  br label %if.end

if.else:                                          ; preds = %entry
  %3 = load i32, ptr %res16.addr, align 4
  %4 = load ptr, ptr %pResData.addr, align 8
  %poolStringIndex16Limit1 = getelementptr inbounds %struct.ResourceData, ptr %4, i32 0, i32 8
  %5 = load i32, ptr %poolStringIndex16Limit1, align 4
  %sub = sub nsw i32 %3, %5
  %6 = load ptr, ptr %pResData.addr, align 8
  %poolStringIndexLimit = getelementptr inbounds %struct.ResourceData, ptr %6, i32 0, i32 7
  %7 = load i32, ptr %poolStringIndexLimit, align 8
  %add = add nsw i32 %sub, %7
  store i32 %add, ptr %res16.addr, align 4
  br label %if.end

if.end:                                           ; preds = %if.else, %if.then
  %8 = load i32, ptr %res16.addr, align 4
  %or = or i32 1610612736, %8
  ret i32 %or
}

; Function Attrs: mustprogress uwtable
define i32 @res_getArrayItem_75(ptr noundef %pResData, i32 noundef %array, i32 noundef %indexR) #0 {
entry:
  %retval = alloca i32, align 4
  %pResData.addr = alloca ptr, align 8
  %array.addr = alloca i32, align 4
  %indexR.addr = alloca i32, align 4
  %offset = alloca i32, align 4
  %p = alloca ptr, align 8
  %p8 = alloca ptr, align 8
  store ptr %pResData, ptr %pResData.addr, align 8
  store i32 %array, ptr %array.addr, align 4
  store i32 %indexR, ptr %indexR.addr, align 4
  %0 = load i32, ptr %array.addr, align 4
  %and = and i32 %0, 268435455
  store i32 %and, ptr %offset, align 4
  %1 = load i32, ptr %indexR.addr, align 4
  %cmp = icmp slt i32 %1, 0
  br i1 %cmp, label %if.then, label %if.end

if.then:                                          ; preds = %entry
  store i32 -1, ptr %retval, align 4
  br label %return

if.end:                                           ; preds = %entry
  %2 = load i32, ptr %array.addr, align 4
  %shr = lshr i32 %2, 28
  switch i32 %shr, label %sw.default [
    i32 8, label %sw.bb
    i32 9, label %sw.bb7
  ]

sw.bb:                                            ; preds = %if.end
  %3 = load i32, ptr %offset, align 4
  %cmp1 = icmp ne i32 %3, 0
  br i1 %cmp1, label %if.then2, label %if.end6

if.then2:                                         ; preds = %sw.bb
  %4 = load ptr, ptr %pResData.addr, align 8
  %pRoot = getelementptr inbounds %struct.ResourceData, ptr %4, i32 0, i32 1
  %5 = load ptr, ptr %pRoot, align 8
  %6 = load i32, ptr %offset, align 4
  %idx.ext = zext i32 %6 to i64
  %add.ptr = getelementptr inbounds i32, ptr %5, i64 %idx.ext
  store ptr %add.ptr, ptr %p, align 8
  %7 = load i32, ptr %indexR.addr, align 4
  %8 = load ptr, ptr %p, align 8
  %9 = load i32, ptr %8, align 4
  %cmp3 = icmp slt i32 %7, %9
  br i1 %cmp3, label %if.then4, label %if.end5

if.then4:                                         ; preds = %if.then2
  %10 = load ptr, ptr %p, align 8
  %11 = load i32, ptr %indexR.addr, align 4
  %add = add nsw i32 1, %11
  %idxprom = sext i32 %add to i64
  %arrayidx = getelementptr inbounds i32, ptr %10, i64 %idxprom
  %12 = load i32, ptr %arrayidx, align 4
  store i32 %12, ptr %retval, align 4
  br label %return

if.end5:                                          ; preds = %if.then2
  br label %if.end6

if.end6:                                          ; preds = %if.end5, %sw.bb
  br label %sw.epilog

sw.bb7:                                           ; preds = %if.end
  %13 = load ptr, ptr %pResData.addr, align 8
  %p16BitUnits = getelementptr inbounds %struct.ResourceData, ptr %13, i32 0, i32 2
  %14 = load ptr, ptr %p16BitUnits, align 8
  %15 = load i32, ptr %offset, align 4
  %idx.ext9 = zext i32 %15 to i64
  %add.ptr10 = getelementptr inbounds i16, ptr %14, i64 %idx.ext9
  store ptr %add.ptr10, ptr %p8, align 8
  %16 = load i32, ptr %indexR.addr, align 4
  %17 = load ptr, ptr %p8, align 8
  %18 = load i16, ptr %17, align 2
  %conv = zext i16 %18 to i32
  %cmp11 = icmp slt i32 %16, %conv
  br i1 %cmp11, label %if.then12, label %if.end17

if.then12:                                        ; preds = %sw.bb7
  %19 = load ptr, ptr %pResData.addr, align 8
  %20 = load ptr, ptr %p8, align 8
  %21 = load i32, ptr %indexR.addr, align 4
  %add13 = add nsw i32 1, %21
  %idxprom14 = sext i32 %add13 to i64
  %arrayidx15 = getelementptr inbounds i16, ptr %20, i64 %idxprom14
  %22 = load i16, ptr %arrayidx15, align 2
  %conv16 = zext i16 %22 to i32
  %call = call noundef i32 @_ZL18makeResourceFrom16PK12ResourceDatai(ptr noundef %19, i32 noundef %conv16)
  store i32 %call, ptr %retval, align 4
  br label %return

if.end17:                                         ; preds = %sw.bb7
  br label %sw.epilog

sw.default:                                       ; preds = %if.end
  br label %sw.epilog

sw.epilog:                                        ; preds = %sw.default, %if.end17, %if.end6
  store i32 -1, ptr %retval, align 4
  br label %return

return:                                           ; preds = %sw.epilog, %if.then12, %if.then4, %if.then
  %23 = load i32, ptr %retval, align 4
  ret i32 %23
}

; Function Attrs: mustprogress uwtable
define i32 @res_findResource_75(ptr noundef %pResData, i32 noundef %r, ptr noundef %path, ptr noundef %key) #0 {
entry:
  %retval = alloca i32, align 4
  %pResData.addr = alloca ptr, align 8
  %r.addr = alloca i32, align 4
  %path.addr = alloca ptr, align 8
  %key.addr = alloca ptr, align 8
  %pathP = alloca ptr, align 8
  %nextSepP = alloca ptr, align 8
  %closeIndex = alloca ptr, align 8
  %t1 = alloca i32, align 4
  %t2 = alloca i32, align 4
  %indexR = alloca i32, align 4
  %type = alloca i32, align 4
  store ptr %pResData, ptr %pResData.addr, align 8
  store i32 %r, ptr %r.addr, align 4
  store ptr %path, ptr %path.addr, align 8
  store ptr %key, ptr %key.addr, align 8
  %0 = load ptr, ptr %path.addr, align 8
  %1 = load ptr, ptr %0, align 8
  store ptr %1, ptr %pathP, align 8
  %2 = load ptr, ptr %path.addr, align 8
  %3 = load ptr, ptr %2, align 8
  store ptr %3, ptr %nextSepP, align 8
  store ptr null, ptr %closeIndex, align 8
  %4 = load i32, ptr %r.addr, align 4
  store i32 %4, ptr %t1, align 4
  store i32 0, ptr %indexR, align 4
  %5 = load i32, ptr %t1, align 4
  %shr = lshr i32 %5, 28
  store i32 %shr, ptr %type, align 4
  %6 = load ptr, ptr %pathP, align 8
  %call = call i64 @strlen(ptr noundef %6) #9
  %tobool = icmp ne i64 %call, 0
  br i1 %tobool, label %if.end, label %if.then

if.then:                                          ; preds = %entry
  %7 = load i32, ptr %r.addr, align 4
  store i32 %7, ptr %retval, align 4
  br label %return

if.end:                                           ; preds = %entry
  %8 = load i32, ptr %type, align 4
  %cmp = icmp eq i32 %8, 2
  br i1 %cmp, label %if.end9, label %lor.lhs.false

lor.lhs.false:                                    ; preds = %if.end
  %9 = load i32, ptr %type, align 4
  %cmp1 = icmp eq i32 %9, 5
  br i1 %cmp1, label %if.end9, label %lor.lhs.false2

lor.lhs.false2:                                   ; preds = %lor.lhs.false
  %10 = load i32, ptr %type, align 4
  %cmp3 = icmp eq i32 %10, 4
  br i1 %cmp3, label %if.end9, label %lor.lhs.false4

lor.lhs.false4:                                   ; preds = %lor.lhs.false2
  %11 = load i32, ptr %type, align 4
  %cmp5 = icmp eq i32 %11, 8
  br i1 %cmp5, label %if.end9, label %lor.lhs.false6

lor.lhs.false6:                                   ; preds = %lor.lhs.false4
  %12 = load i32, ptr %type, align 4
  %cmp7 = icmp eq i32 %12, 9
  br i1 %cmp7, label %if.end9, label %if.then8

if.then8:                                         ; preds = %lor.lhs.false6
  store i32 -1, ptr %retval, align 4
  br label %return

if.end9:                                          ; preds = %lor.lhs.false6, %lor.lhs.false4, %lor.lhs.false2, %lor.lhs.false, %if.end
  br label %while.cond

while.cond:                                       ; preds = %if.end54, %if.end9
  %13 = load ptr, ptr %nextSepP, align 8
  %tobool10 = icmp ne ptr %13, null
  br i1 %tobool10, label %land.lhs.true, label %land.end

land.lhs.true:                                    ; preds = %while.cond
  %14 = load ptr, ptr %pathP, align 8
  %15 = load i8, ptr %14, align 1
  %tobool11 = icmp ne i8 %15, 0
  br i1 %tobool11, label %land.lhs.true12, label %land.end

land.lhs.true12:                                  ; preds = %land.lhs.true
  %16 = load i32, ptr %t1, align 4
  %cmp13 = icmp ne i32 %16, -1
  br i1 %cmp13, label %land.rhs, label %land.end

land.rhs:                                         ; preds = %land.lhs.true12
  %17 = load i32, ptr %type, align 4
  %cmp14 = icmp eq i32 %17, 2
  br i1 %cmp14, label %lor.end22, label %lor.lhs.false15

lor.lhs.false15:                                  ; preds = %land.rhs
  %18 = load i32, ptr %type, align 4
  %cmp16 = icmp eq i32 %18, 5
  br i1 %cmp16, label %lor.end22, label %lor.lhs.false17

lor.lhs.false17:                                  ; preds = %lor.lhs.false15
  %19 = load i32, ptr %type, align 4
  %cmp18 = icmp eq i32 %19, 4
  br i1 %cmp18, label %lor.end22, label %lor.rhs

lor.rhs:                                          ; preds = %lor.lhs.false17
  %20 = load i32, ptr %type, align 4
  %cmp19 = icmp eq i32 %20, 8
  br i1 %cmp19, label %lor.end, label %lor.rhs20

lor.rhs20:                                        ; preds = %lor.rhs
  %21 = load i32, ptr %type, align 4
  %cmp21 = icmp eq i32 %21, 9
  br label %lor.end

lor.end:                                          ; preds = %lor.rhs20, %lor.rhs
  %22 = phi i1 [ true, %lor.rhs ], [ %cmp21, %lor.rhs20 ]
  br label %lor.end22

lor.end22:                                        ; preds = %lor.end, %lor.lhs.false17, %lor.lhs.false15, %land.rhs
  %23 = phi i1 [ true, %lor.lhs.false17 ], [ true, %lor.lhs.false15 ], [ true, %land.rhs ], [ %22, %lor.end ]
  br label %land.end

land.end:                                         ; preds = %lor.end22, %land.lhs.true12, %land.lhs.true, %while.cond
  %24 = phi i1 [ false, %land.lhs.true12 ], [ false, %land.lhs.true ], [ false, %while.cond ], [ %23, %lor.end22 ]
  br i1 %24, label %while.body, label %while.end

while.body:                                       ; preds = %land.end
  %25 = load ptr, ptr %pathP, align 8
  %call23 = call noundef ptr @strchr(ptr noundef %25, i32 noundef 47) #9
  store ptr %call23, ptr %nextSepP, align 8
  %26 = load ptr, ptr %nextSepP, align 8
  %cmp24 = icmp ne ptr %26, null
  br i1 %cmp24, label %if.then25, label %if.else

if.then25:                                        ; preds = %while.body
  %27 = load ptr, ptr %nextSepP, align 8
  %28 = load ptr, ptr %pathP, align 8
  %cmp26 = icmp eq ptr %27, %28
  br i1 %cmp26, label %if.then27, label %if.end28

if.then27:                                        ; preds = %if.then25
  store i32 -1, ptr %retval, align 4
  br label %return

if.end28:                                         ; preds = %if.then25
  %29 = load ptr, ptr %nextSepP, align 8
  store i8 0, ptr %29, align 1
  %30 = load ptr, ptr %nextSepP, align 8
  %add.ptr = getelementptr inbounds i8, ptr %30, i64 1
  %31 = load ptr, ptr %path.addr, align 8
  store ptr %add.ptr, ptr %31, align 8
  br label %if.end30

if.else:                                          ; preds = %while.body
  %32 = load ptr, ptr %pathP, align 8
  %call29 = call noundef ptr @strchr(ptr noundef %32, i32 noundef 0) #9
  %33 = load ptr, ptr %path.addr, align 8
  store ptr %call29, ptr %33, align 8
  br label %if.end30

if.end30:                                         ; preds = %if.else, %if.end28
  %34 = load i32, ptr %type, align 4
  %cmp31 = icmp eq i32 %34, 2
  br i1 %cmp31, label %if.then36, label %lor.lhs.false32

lor.lhs.false32:                                  ; preds = %if.end30
  %35 = load i32, ptr %type, align 4
  %cmp33 = icmp eq i32 %35, 5
  br i1 %cmp33, label %if.then36, label %lor.lhs.false34

lor.lhs.false34:                                  ; preds = %lor.lhs.false32
  %36 = load i32, ptr %type, align 4
  %cmp35 = icmp eq i32 %36, 4
  br i1 %cmp35, label %if.then36, label %if.else38

if.then36:                                        ; preds = %lor.lhs.false34, %lor.lhs.false32, %if.end30
  %37 = load ptr, ptr %pathP, align 8
  %38 = load ptr, ptr %key.addr, align 8
  store ptr %37, ptr %38, align 8
  %39 = load ptr, ptr %pResData.addr, align 8
  %40 = load i32, ptr %t1, align 4
  %41 = load ptr, ptr %key.addr, align 8
  %call37 = call i32 @res_getTableItemByKey_75(ptr noundef %39, i32 noundef %40, ptr noundef %indexR, ptr noundef %41)
  store i32 %call37, ptr %t2, align 4
  br label %if.end54

if.else38:                                        ; preds = %lor.lhs.false34
  %42 = load i32, ptr %type, align 4
  %cmp39 = icmp eq i32 %42, 8
  br i1 %cmp39, label %if.then42, label %lor.lhs.false40

lor.lhs.false40:                                  ; preds = %if.else38
  %43 = load i32, ptr %type, align 4
  %cmp41 = icmp eq i32 %43, 9
  br i1 %cmp41, label %if.then42, label %if.else52

if.then42:                                        ; preds = %lor.lhs.false40, %if.else38
  %44 = load ptr, ptr %pathP, align 8
  %call43 = call i64 @strtol(ptr noundef %44, ptr noundef %closeIndex, i32 noundef 10) #8
  %conv = trunc i64 %call43 to i32
  store i32 %conv, ptr %indexR, align 4
  %45 = load i32, ptr %indexR, align 4
  %cmp44 = icmp sge i32 %45, 0
  br i1 %cmp44, label %land.lhs.true45, label %if.else50

land.lhs.true45:                                  ; preds = %if.then42
  %46 = load ptr, ptr %closeIndex, align 8
  %47 = load i8, ptr %46, align 1
  %conv46 = sext i8 %47 to i32
  %cmp47 = icmp eq i32 %conv46, 0
  br i1 %cmp47, label %if.then48, label %if.else50

if.then48:                                        ; preds = %land.lhs.true45
  %48 = load ptr, ptr %pResData.addr, align 8
  %49 = load i32, ptr %t1, align 4
  %50 = load i32, ptr %indexR, align 4
  %call49 = call i32 @res_getArrayItem_75(ptr noundef %48, i32 noundef %49, i32 noundef %50)
  store i32 %call49, ptr %t2, align 4
  br label %if.end51

if.else50:                                        ; preds = %land.lhs.true45, %if.then42
  store i32 -1, ptr %t2, align 4
  br label %if.end51

if.end51:                                         ; preds = %if.else50, %if.then48
  %51 = load ptr, ptr %key.addr, align 8
  store ptr null, ptr %51, align 8
  br label %if.end53

if.else52:                                        ; preds = %lor.lhs.false40
  store i32 -1, ptr %t2, align 4
  br label %if.end53

if.end53:                                         ; preds = %if.else52, %if.end51
  br label %if.end54

if.end54:                                         ; preds = %if.end53, %if.then36
  %52 = load i32, ptr %t2, align 4
  store i32 %52, ptr %t1, align 4
  %53 = load i32, ptr %t1, align 4
  %shr55 = lshr i32 %53, 28
  store i32 %shr55, ptr %type, align 4
  %54 = load ptr, ptr %path.addr, align 8
  %55 = load ptr, ptr %54, align 8
  store ptr %55, ptr %pathP, align 8
  br label %while.cond, !llvm.loop !9

while.end:                                        ; preds = %land.end
  %56 = load i32, ptr %t1, align 4
  store i32 %56, ptr %retval, align 4
  br label %return

return:                                           ; preds = %while.end, %if.then27, %if.then8, %if.then
  %57 = load i32, ptr %retval, align 4
  ret i32 %57
}