; Function Attrs: mustprogress nofree nounwind uwtable
define i32 @res_findResource_75(ptr nocapture noundef readonly %pResData, i32 noundef %r, ptr nocapture noundef %path, ptr noundef %key) local_unnamed_addr #11 {
entry:
  %closeIndex = alloca ptr, align 8
  %indexR = alloca i32, align 4
  %0 = load ptr, ptr %path, align 8
  store ptr null, ptr %closeIndex, align 8
  %char0 = load i8, ptr %0, align 1
  %tobool.not = icmp eq i8 %char0, 0
  br i1 %tobool.not, label %return, label %if.end

if.end:                                           ; preds = %entry
  %shr = lshr i32 %r, 28
  %cmp = icmp eq i32 %shr, 2
  br i1 %cmp, label %while.cond.preheader, label %switch.early.test

switch.early.test:                                ; preds = %if.end
  %1 = and i32 %r, -536870912
  switch i32 %1, label %return [
    i32 -2147483648, label %while.cond.preheader
    i32 1073741824, label %while.cond.preheader
  ]

while.cond.preheader:                             ; preds = %switch.early.test, %switch.early.test, %if.end
  %p16BitUnits.i = getelementptr inbounds i8, ptr %pResData, i64 16
  %poolStringIndex16Limit.i.i = getelementptr inbounds i8, ptr %pResData, i64 52
  %poolStringIndexLimit.i.i = getelementptr inbounds i8, ptr %pResData, i64 48
  %pRoot.i = getelementptr inbounds i8, ptr %pResData, i64 8
  br label %land.lhs.true

land.lhs.true:                                    ; preds = %while.cond.preheader, %if.end54
  %type.050 = phi i32 [ %shr, %while.cond.preheader ], [ %shr55, %if.end54 ]
  %t1.049 = phi i32 [ %r, %while.cond.preheader ], [ %t2.1, %if.end54 ]
  %pathP.048 = phi ptr [ %0, %while.cond.preheader ], [ %20, %if.end54 ]
  %2 = load i8, ptr %pathP.048, align 1
  %tobool11 = icmp ne i8 %2, 0
  %cmp13 = icmp ne i32 %t1.049, -1
  %or.cond4 = select i1 %tobool11, i1 %cmp13, i1 false
  br i1 %or.cond4, label %land.rhs, label %return

land.rhs:                                         ; preds = %land.lhs.true
  %type.050.fr = freeze i32 %type.050
  %cmp14 = icmp eq i32 %type.050.fr, 2
  %3 = and i32 %type.050.fr, 14
  %4 = icmp eq i32 %3, 4
  %or.cond6 = or i1 %cmp14, %4
  %5 = icmp eq i32 %3, 8
  br i1 %cmp14, label %while.body, label %switch.early.test51

switch.early.test51:                              ; preds = %land.rhs
  switch i32 %3, label %return [
    i32 8, label %while.body
    i32 4, label %while.body
  ]

while.body:                                       ; preds = %switch.early.test51, %switch.early.test51, %land.rhs
  %call23 = tail call noundef ptr @strchr(ptr noundef nonnull dereferenceable(1) %pathP.048, i32 noundef 47) #18
  %cmp24.not = icmp eq ptr %call23, null
  br i1 %cmp24.not, label %if.else, label %if.then25

if.then25:                                        ; preds = %while.body
  %cmp26 = icmp eq ptr %call23, %pathP.048
  br i1 %cmp26, label %return, label %if.end28

if.end28:                                         ; preds = %if.then25
  store i8 0, ptr %call23, align 1
  %add.ptr = getelementptr inbounds i8, ptr %call23, i64 1
  br label %if.end30

if.else:                                          ; preds = %while.body
  %strlen = tail call i64 @strlen(ptr nonnull dereferenceable(1) %pathP.048)
  %strchr = getelementptr inbounds i8, ptr %pathP.048, i64 %strlen
  br label %if.end30

if.end30:                                         ; preds = %if.else, %if.end28
  %storemerge = phi ptr [ %strchr, %if.else ], [ %add.ptr, %if.end28 ]
  store ptr %storemerge, ptr %path, align 8
  br i1 %or.cond6, label %if.then36, label %if.else38

if.then36:                                        ; preds = %if.end30
  store ptr %pathP.048, ptr %key, align 8
  %call37 = call i32 @res_getTableItemByKey_75(ptr noundef %pResData, i32 noundef %t1.049, ptr noundef nonnull %indexR, ptr noundef nonnull %key)
  br label %if.end54

if.else38:                                        ; preds = %if.end30
  br i1 %5, label %if.then42, label %if.end54

if.then42:                                        ; preds = %if.else38
  %call43 = call i64 @strtol(ptr noundef nonnull %pathP.048, ptr noundef nonnull %closeIndex, i32 noundef 10) #17
  %conv = trunc i64 %call43 to i32
  %cmp44 = icmp sgt i32 %conv, -1
  br i1 %cmp44, label %land.lhs.true45, label %if.end51

land.lhs.true45:                                  ; preds = %if.then42
  %6 = load ptr, ptr %closeIndex, align 8
  %7 = load i8, ptr %6, align 1
  %cmp47 = icmp eq i8 %7, 0
  br i1 %cmp47, label %if.end.i, label %if.end51

if.end.i:                                         ; preds = %land.lhs.true45
  %and.i = and i32 %t1.049, 268435455
  %shr.i = lshr i32 %t1.049, 28
  switch i32 %shr.i, label %if.end51 [
    i32 8, label %sw.bb.i
    i32 9, label %sw.bb7.i
  ]

sw.bb.i:                                          ; preds = %if.end.i
  %cmp1.not.i = icmp eq i32 %and.i, 0
  br i1 %cmp1.not.i, label %if.end51, label %if.then2.i

if.then2.i:                                       ; preds = %sw.bb.i
  %8 = load ptr, ptr %pRoot.i, align 8
  %idx.ext.i = zext nneg i32 %and.i to i64
  %add.ptr.i = getelementptr inbounds i32, ptr %8, i64 %idx.ext.i
  %9 = load i32, ptr %add.ptr.i, align 4
  %cmp3.i = icmp sgt i32 %9, %conv
  br i1 %cmp3.i, label %if.then4.i, label %if.end51

if.then4.i:                                       ; preds = %if.then2.i
  %10 = and i64 %call43, 2147483647
  %11 = getelementptr i32, ptr %add.ptr.i, i64 %10
  %arrayidx.i = getelementptr i8, ptr %11, i64 4
  %12 = load i32, ptr %arrayidx.i, align 4
  br label %if.end51

sw.bb7.i:                                         ; preds = %if.end.i
  %13 = load ptr, ptr %p16BitUnits.i, align 8
  %idx.ext9.i = zext nneg i32 %and.i to i64
  %add.ptr10.i = getelementptr inbounds i16, ptr %13, i64 %idx.ext9.i
  %14 = load i16, ptr %add.ptr10.i, align 2
  %conv.i = zext i16 %14 to i32
  %cmp11.i = icmp ugt i32 %conv.i, %conv
  br i1 %cmp11.i, label %if.then12.i, label %if.end51

if.then12.i:                                      ; preds = %sw.bb7.i
  %15 = and i64 %call43, 2147483647
  %16 = getelementptr i16, ptr %add.ptr10.i, i64 %15
  %arrayidx15.i = getelementptr i8, ptr %16, i64 2
  %17 = load i16, ptr %arrayidx15.i, align 2
  %conv16.i = zext i16 %17 to i32
  %18 = load i32, ptr %poolStringIndex16Limit.i.i, align 4
  %cmp.i.i = icmp sgt i32 %18, %conv16.i
  br i1 %cmp.i.i, label %_ZL18makeResourceFrom16PK12ResourceDatai.exit.i, label %if.else.i.i

if.else.i.i:                                      ; preds = %if.then12.i
  %sub.i.i = sub i32 %conv16.i, %18
  %19 = load i32, ptr %poolStringIndexLimit.i.i, align 8
  %add.i.i = add nsw i32 %sub.i.i, %19
  br label %_ZL18makeResourceFrom16PK12ResourceDatai.exit.i

_ZL18makeResourceFrom16PK12ResourceDatai.exit.i:  ; preds = %if.else.i.i, %if.then12.i
  %res16.addr.0.i.i = phi i32 [ %conv16.i, %if.then12.i ], [ %add.i.i, %if.else.i.i ]
  %or.i.i = or i32 %res16.addr.0.i.i, 1610612736
  br label %if.end51

if.end51:                                         ; preds = %_ZL18makeResourceFrom16PK12ResourceDatai.exit.i, %sw.bb7.i, %if.then4.i, %if.then2.i, %sw.bb.i, %if.end.i, %if.then42, %land.lhs.true45
  %t2.0 = phi i32 [ -1, %land.lhs.true45 ], [ -1, %if.then42 ], [ %or.i.i, %_ZL18makeResourceFrom16PK12ResourceDatai.exit.i ], [ %12, %if.then4.i ], [ -1, %if.end.i ], [ -1, %sw.bb7.i ], [ -1, %sw.bb.i ], [ -1, %if.then2.i ]
  store ptr null, ptr %key, align 8
  br label %if.end54

if.end54:                                         ; preds = %if.else38, %if.end51, %if.then36
  %t2.1 = phi i32 [ %call37, %if.then36 ], [ %t2.0, %if.end51 ], [ -1, %if.else38 ]
  %shr55 = lshr i32 %t2.1, 28
  %20 = load ptr, ptr %path, align 8
  br i1 %cmp24.not, label %return, label %land.lhs.true, !llvm.loop !9

return:                                           ; preds = %if.end54, %land.lhs.true, %if.then25, %switch.early.test51, %switch.early.test, %entry
  %retval.0 = phi i32 [ %r, %entry ], [ -1, %switch.early.test ], [ %t2.1, %if.end54 ], [ %t1.049, %land.lhs.true ], [ %t1.049, %switch.early.test51 ], [ -1, %if.then25 ]
  ret i32 %retval.0
}